; Function Attrs: mustprogress uwtable
define void @_ZN5folly3ssl18ssl_options_detail9logDfatalERKSt9exception(ptr noundef nonnull align 8 dereferenceable(8) %0) local_unnamed_addr #0 personality ptr @__gxx_personality_v0 {
  %2 = alloca %"class.google::LogMessage", align 8
  %3 = alloca %"class.folly::basic_fbstring", align 8
  call void @llvm.lifetime.start.p0(i64 16, ptr nonnull %2) #18
  call void @_ZN6google10LogMessageC1EPKcii(ptr noundef nonnull align 8 dereferenceable(16) %2, ptr noundef nonnull @.str, i32 noundef 28, i32 noundef 2)
  %4 = invoke noundef nonnull align 8 dereferenceable(8) ptr @_ZN6google10LogMessage6streamEv(ptr noundef nonnull align 8 dereferenceable(16) %2)
          to label %5 unwind label %22

5:                                                ; preds = %1
  call void @llvm.lifetime.start.p0(i64 24, ptr nonnull %3) #18
  invoke void @_ZN5folly12exceptionStrERKSt9exception(ptr dead_on_unwind nonnull writable sret(%"class.folly::basic_fbstring") align 8 %3, ptr noundef nonnull align 8 dereferenceable(8) %0)
          to label %6 unwind label %24

6:                                                ; preds = %5
  %7 = load ptr, ptr %3, align 8, !tbaa !7
  %8 = getelementptr inbounds nuw i8, ptr %3, i64 23
  %9 = load i8, ptr %8, align 1, !tbaa !7
  %10 = icmp ult i8 %9, 64
  %11 = select i1 %10, ptr %3, ptr %7
  %12 = getelementptr inbounds nuw i8, ptr %3, i64 8
  %13 = load i64, ptr %12, align 8, !tbaa !7
  %14 = zext i8 %9 to i64
  %15 = sub nsw i64 23, %14
  %16 = icmp ult i8 %9, 24
  %17 = select i1 %16, i64 %15, i64 %13
  %18 = invoke noundef nonnull align 8 dereferenceable(8) ptr @_ZSt16__ostream_insertIcSt11char_traitsIcEERSt13basic_ostreamIT_T0_ES6_PKS3_l(ptr noundef nonnull align 8 dereferenceable(8) %4, ptr noundef %11, i64 noundef %17)
          to label %_ZN5follylsIcSt11char_traitsIcESaIcENS_13fbstring_coreIcEEEERSt13basic_ostreamINS_14basic_fbstringIT_T0_T1_T2_E10value_typeENSC_11traits_typeEESG_RKSC_.exit unwind label %26

_ZN5follylsIcSt11char_traitsIcESaIcENS_13fbstring_coreIcEEEERSt13basic_ostreamINS_14basic_fbstringIT_T0_T1_T2_E10value_typeENSC_11traits_typeEESG_RKSC_.exit: ; preds = %6
  %19 = load i8, ptr %8, align 1, !tbaa !7
  %20 = icmp ult i8 %19, 64
  br i1 %20, label %_ZN5folly14basic_fbstringIcSt11char_traitsIcESaIcENS_13fbstring_coreIcEEED2Ev.exit, label %21

21:                                               ; preds = %_ZN5follylsIcSt11char_traitsIcESaIcENS_13fbstring_coreIcEEEERSt13basic_ostreamINS_14basic_fbstringIT_T0_T1_T2_E10value_typeENSC_11traits_typeEESG_RKSC_.exit
  call void @_ZN5folly13fbstring_coreIcE18destroyMediumLargeEv(ptr noundef nonnull align 8 dereferenceable(24) %3) #18
  br label %_ZN5folly14basic_fbstringIcSt11char_traitsIcESaIcENS_13fbstring_coreIcEEED2Ev.exit

_ZN5folly14basic_fbstringIcSt11char_traitsIcESaIcENS_13fbstring_coreIcEEED2Ev.exit: ; preds = %_ZN5follylsIcSt11char_traitsIcESaIcENS_13fbstring_coreIcEEEERSt13basic_ostreamINS_14basic_fbstringIT_T0_T1_T2_E10value_typeENSC_11traits_typeEESG_RKSC_.exit, %21
  call void @llvm.lifetime.end.p0(i64 24, ptr nonnull %3) #18
  call void @_ZN6google10LogMessageD1Ev(ptr noundef nonnull align 8 dereferenceable(16) %2) #18
  call void @llvm.lifetime.end.p0(i64 16, ptr nonnull %2) #18
  ret void

22:                                               ; preds = %1
  %23 = landingpad { ptr, i32 }
          cleanup
  br label %31

24:                                               ; preds = %5
  %25 = landingpad { ptr, i32 }
          cleanup
  br label %_ZN5folly14basic_fbstringIcSt11char_traitsIcESaIcENS_13fbstring_coreIcEEED2Ev.exit6

26:                                               ; preds = %6
  %27 = landingpad { ptr, i32 }
          cleanup
  %28 = load i8, ptr %8, align 1, !tbaa !7
  %29 = icmp ult i8 %28, 64
  br i1 %29, label %_ZN5folly14basic_fbstringIcSt11char_traitsIcESaIcENS_13fbstring_coreIcEEED2Ev.exit6, label %30

30:                                               ; preds = %26
  call void @_ZN5folly13fbstring_coreIcE18destroyMediumLargeEv(ptr noundef nonnull align 8 dereferenceable(24) %3) #18
  br label %_ZN5folly14basic_fbstringIcSt11char_traitsIcESaIcENS_13fbstring_coreIcEEED2Ev.exit6

_ZN5folly14basic_fbstringIcSt11char_traitsIcESaIcENS_13fbstring_coreIcEEED2Ev.exit6: ; preds = %30, %26, %24
  %.pn = phi { ptr, i32 } [ %25, %24 ], [ %27, %26 ], [ %27, %30 ]
  call void @llvm.lifetime.end.p0(i64 24, ptr nonnull %3) #18
  br label %31

31:                                               ; preds = %_ZN5folly14basic_fbstringIcSt11char_traitsIcESaIcENS_13fbstring_coreIcEEED2Ev.exit6, %22
  %.pn.pn = phi { ptr, i32 } [ %.pn, %_ZN5folly14basic_fbstringIcSt11char_traitsIcESaIcENS_13fbstring_coreIcEEED2Ev.exit6 ], [ %23, %22 ]
  call void @_ZN6google10LogMessageD1Ev(ptr noundef nonnull align 8 dereferenceable(16) %2) #18
  call void @llvm.lifetime.end.p0(i64 16, ptr nonnull %2) #18
  resume { ptr, i32 } %.pn.pn
}